; ModuleID = '10/2037.c'
source_filename = "10/2037.c"
target datalayout = "e-m:e-p270:32:32-p271:32:32-p272:64:64-i64:64-f80:128-n8:16:32:64-S128"
target triple = "x86_64-pc-linux-gnu"

%struct.missle = type { i32, i32 }

@max = dso_local global i32 0, align 4
@.str = private unnamed_addr constant [3 x i8] c"%d\00", align 1
@p = common dso_local global %struct.missle* null, align 8
@.str.1 = private unnamed_addr constant [4 x i8] c"%d\0A\00", align 1
@tmp = common dso_local global %struct.missle zeroinitializer, align 4

; Function Attrs: noinline nounwind uwtable
define dso_local i32 @main() #0 {
  %1 = alloca i32, align 4
  %2 = alloca i32, align 4
  %3 = alloca i32, align 4
  %4 = alloca i32, align 4
  store i32 0, i32* %1, align 4
  %5 = call i32 (i8*, ...) @__isoc99_scanf(i8* getelementptr inbounds ([3 x i8], [3 x i8]* @.str, i64 0, i64 0), i32* %2)
  %6 = load i32, i32* %2, align 4
  %7 = sext i32 %6 to i64
  %8 = mul i64 8, %7
  %9 = call noalias i8* @malloc(i64 %8) #3
  %10 = bitcast i8* %9 to %struct.missle*
  store %struct.missle* %10, %struct.missle** @p, align 8
  store i32 0, i32* %3, align 4
  br label %11

11:                                               ; preds = %26, %0
  %12 = load %struct.missle*, %struct.missle** @p, align 8
  %13 = load i32, i32* %3, align 4
  %14 = sext i32 %13 to i64
  %15 = getelementptr inbounds %struct.missle, %struct.missle* %12, i64 %14
  %16 = getelementptr inbounds %struct.missle, %struct.missle* %15, i32 0, i32 1
  %17 = call i32 (i8*, ...) @__isoc99_scanf(i8* getelementptr inbounds ([3 x i8], [3 x i8]* @.str, i64 0, i64 0), i32* %16)
  %18 = load i32, i32* %3, align 4
  %19 = load %struct.missle*, %struct.missle** @p, align 8
  %20 = load i32, i32* %3, align 4
  %21 = sext i32 %20 to i64
  %22 = getelementptr inbounds %struct.missle, %struct.missle* %19, i64 %21
  %23 = getelementptr inbounds %struct.missle, %struct.missle* %22, i32 0, i32 0
  store i32 %18, i32* %23, align 4
  %24 = load i32, i32* %3, align 4
  %25 = add nsw i32 %24, 1
  store i32 %25, i32* %3, align 4
  br label %26

26:                                               ; preds = %11
  %27 = load i32, i32* %3, align 4
  %28 = load i32, i32* %2, align 4
  %29 = icmp slt i32 %27, %28
  br i1 %29, label %11, label %30

30:                                               ; preds = %26
  store i32 0, i32* %3, align 4
  br label %31

31:                                               ; preds = %39, %30
  %32 = load i32, i32* %3, align 4
  %33 = load i32, i32* %2, align 4
  %34 = icmp slt i32 %32, %33
  br i1 %34, label %35, label %42

35:                                               ; preds = %31
  %36 = load i32, i32* %3, align 4
  %37 = load i32, i32* %2, align 4
  %38 = call i32 @maxn(i32 %36, i32 %37)
  store i32 %38, i32* %4, align 4
  br label %39

39:                                               ; preds = %35
  %40 = load i32, i32* %3, align 4
  %41 = add nsw i32 %40, 1
  store i32 %41, i32* %3, align 4
  br label %31

42:                                               ; preds = %31
  %43 = load i32, i32* @max, align 4
  %44 = call i32 (i8*, ...) @printf(i8* getelementptr inbounds ([4 x i8], [4 x i8]* @.str.1, i64 0, i64 0), i32 %43)
  %45 = load %struct.missle*, %struct.missle** @p, align 8
  %46 = bitcast %struct.missle* %45 to i8*
  call void @free(i8* %46) #3
  ret i32 0
}

declare dso_local i32 @__isoc99_scanf(i8*, ...) #1

; Function Attrs: nounwind
declare dso_local noalias i8* @malloc(i64) #2

; Function Attrs: noinline nounwind uwtable
define dso_local i32 @maxn(i32 %0, i32 %1) #0 {
  %3 = alloca i32, align 4
  %4 = alloca i32, align 4
  %5 = alloca i32, align 4
  %6 = alloca i32, align 4
  %7 = alloca i32, align 4
  store i32 %0, i32* %3, align 4
  store i32 %1, i32* %4, align 4
  store i32 1, i32* %5, align 4
  store i32 1, i32* %6, align 4
  %8 = load i32, i32* %3, align 4
  %9 = load i32, i32* %4, align 4
  %10 = sub nsw i32 %9, 1
  %11 = icmp eq i32 %8, %10
  br i1 %11, label %12, label %13

12:                                               ; preds = %2
  store i32 1, i32* %5, align 4
  br label %42

13:                                               ; preds = %2
  %14 = load i32, i32* %3, align 4
  %15 = add nsw i32 %14, 1
  store i32 %15, i32* %7, align 4
  br label %16

16:                                               ; preds = %38, %13
  %17 = load i32, i32* %7, align 4
  %18 = load i32, i32* %4, align 4
  %19 = icmp slt i32 %17, %18
  br i1 %19, label %20, label %41

20:                                               ; preds = %16
  store i32 1, i32* %6, align 4
  %21 = load i32, i32* %3, align 4
  %22 = load i32, i32* %7, align 4
  %23 = call i32 @pass(i32 %21, i32 %22)
  %24 = icmp eq i32 %23, 1
  br i1 %24, label %25, label %37

25:                                               ; preds = %20
  %26 = load i32, i32* %7, align 4
  %27 = load i32, i32* %4, align 4
  %28 = call i32 @maxn(i32 %26, i32 %27)
  %29 = load i32, i32* %6, align 4
  %30 = add nsw i32 %29, %28
  store i32 %30, i32* %6, align 4
  %31 = load i32, i32* %6, align 4
  %32 = load i32, i32* %5, align 4
  %33 = icmp sgt i32 %31, %32
  br i1 %33, label %34, label %36

34:                                               ; preds = %25
  %35 = load i32, i32* %6, align 4
  store i32 %35, i32* %5, align 4
  br label %36

36:                                               ; preds = %34, %25
  br label %37

37:                                               ; preds = %36, %20
  br label %38

38:                                               ; preds = %37
  %39 = load i32, i32* %7, align 4
  %40 = add nsw i32 %39, 1
  store i32 %40, i32* %7, align 4
  br label %16

41:                                               ; preds = %16
  br label %42

42:                                               ; preds = %41, %12
  %43 = load i32, i32* %5, align 4
  %44 = load i32, i32* @max, align 4
  %45 = icmp sgt i32 %43, %44
  br i1 %45, label %46, label %48

46:                                               ; preds = %42
  %47 = load i32, i32* %5, align 4
  store i32 %47, i32* @max, align 4
  br label %48

48:                                               ; preds = %46, %42
  %49 = load i32, i32* %5, align 4
  ret i32 %49
}

declare dso_local i32 @printf(i8*, ...) #1

; Function Attrs: nounwind
declare dso_local void @free(i8*) #2

; Function Attrs: noinline nounwind uwtable
define dso_local i32 @pass(i32 %0, i32 %1) #0 {
  %3 = alloca i32, align 4
  %4 = alloca i32, align 4
  %5 = alloca i32, align 4
  store i32 %0, i32* %4, align 4
  store i32 %1, i32* %5, align 4
  %6 = load %struct.missle*, %struct.missle** @p, align 8
  %7 = load i32, i32* %4, align 4
  %8 = sext i32 %7 to i64
  %9 = getelementptr inbounds %struct.missle, %struct.missle* %6, i64 %8
  %10 = getelementptr inbounds %struct.missle, %struct.missle* %9, i32 0, i32 1
  %11 = load i32, i32* %10, align 4
  %12 = load %struct.missle*, %struct.missle** @p, align 8
  %13 = load i32, i32* %5, align 4
  %14 = sext i32 %13 to i64
  %15 = getelementptr inbounds %struct.missle, %struct.missle* %12, i64 %14
  %16 = getelementptr inbounds %struct.missle, %struct.missle* %15, i32 0, i32 1
  %17 = load i32, i32* %16, align 4
  %18 = icmp sge i32 %11, %17
  br i1 %18, label %19, label %20

19:                                               ; preds = %2
  store i32 1, i32* %3, align 4
  br label %21

20:                                               ; preds = %2
  store i32 0, i32* %3, align 4
  br label %21

21:                                               ; preds = %20, %19
  %22 = load i32, i32* %3, align 4
  ret i32 %22
}


!llvm.module.flags = !{!0}
!llvm.ident = !{!1}

!0 = !{i32 1, !"wchar_size", i32 4}
!1 = !{!"clang version 10.0.0-4ubuntu1 "}
